; Function Attrs: mustprogress nounwind uwtable
define hidden void @_ZN28jdk_internal_vm_Continuation17serialize_offsetsEP16SerializeClosure(ptr noundef %0) local_unnamed_addr #0 align 2 {
  %2 = load ptr, ptr %0, align 8
  %3 = getelementptr inbounds i8, ptr %2, i64 24
  %4 = load ptr, ptr %3, align 8
  tail call void %4(ptr noundef nonnull align 8 dereferenceable(8) %0, ptr noundef nonnull @_ZN28jdk_internal_vm_Continuation13_scope_offsetE) #2
  %5 = load ptr, ptr %0, align 8
  %6 = getelementptr inbounds i8, ptr %5, i64 24
  %7 = load ptr, ptr %6, align 8
  tail call void %7(ptr noundef nonnull align 8 dereferenceable(8) %0, ptr noundef nonnull @_ZN28jdk_internal_vm_Continuation14_target_offsetE) #2
  %8 = load ptr, ptr %0, align 8
  %9 = getelementptr inbounds i8, ptr %8, i64 24
  %10 = load ptr, ptr %9, align 8
  tail call void %10(ptr noundef nonnull align 8 dereferenceable(8) %0, ptr noundef nonnull @_ZN28jdk_internal_vm_Continuation14_parent_offsetE) #2
  %11 = load ptr, ptr %0, align 8
  %12 = getelementptr inbounds i8, ptr %11, i64 24
  %13 = load ptr, ptr %12, align 8
  tail call void %13(ptr noundef nonnull align 8 dereferenceable(8) %0, ptr noundef nonnull @_ZN28jdk_internal_vm_Continuation17_yieldInfo_offsetE) #2
  %14 = load ptr, ptr %0, align 8
  %15 = getelementptr inbounds i8, ptr %14, i64 24
  %16 = load ptr, ptr %15, align 8
  tail call void %16(ptr noundef nonnull align 8 dereferenceable(8) %0, ptr noundef nonnull @_ZN28jdk_internal_vm_Continuation12_tail_offsetE) #2
  %17 = load ptr, ptr %0, align 8
  %18 = getelementptr inbounds i8, ptr %17, i64 24
  %19 = load ptr, ptr %18, align 8
  tail call void %19(ptr noundef nonnull align 8 dereferenceable(8) %0, ptr noundef nonnull @_ZN28jdk_internal_vm_Continuation15_mounted_offsetE) #2
  %20 = load ptr, ptr %0, align 8
  %21 = getelementptr inbounds i8, ptr %20, i64 24
  %22 = load ptr, ptr %21, align 8
  tail call void %22(ptr noundef nonnull align 8 dereferenceable(8) %0, ptr noundef nonnull @_ZN28jdk_internal_vm_Continuation12_done_offsetE) #2
  %23 = load ptr, ptr %0, align 8
  %24 = getelementptr inbounds i8, ptr %23, i64 24
  %25 = load ptr, ptr %24, align 8
  tail call void %25(ptr noundef nonnull align 8 dereferenceable(8) %0, ptr noundef nonnull @_ZN28jdk_internal_vm_Continuation17_preempted_offsetE) #2
  ret void
}